target datalayout = "e-m:e-p270:32:32-p271:32:32-p272:64:64-i64:64-i128:128-f80:128-n8:16:32:64-S128"
target triple = "x86_64-pc-linux-gnu"

%struct.lean_object = type { i32, i32 }

; Function Attrs: alwaysinline nounwind uwtable
define internal void @lean_dec_ref(ptr noundef %0) #1 {
  %2 = alloca ptr, align 8
  store ptr %0, ptr %2, align 8, !tbaa !8
  %3 = load ptr, ptr %2, align 8, !tbaa !8
  %4 = getelementptr inbounds nuw %struct.lean_object, ptr %3, i32 0, i32 0
  %5 = load i32, ptr %4, align 4, !tbaa !13
  %6 = icmp sgt i32 %5, 1
  %7 = zext i1 %6 to i32
  %8 = sext i32 %7 to i64
  %9 = call i64 @llvm.expect.i64(i64 %8, i64 1)
  %10 = icmp ne i64 %9, 0
  br i1 %10, label %11, label %16

11:                                               ; preds = %1
  %12 = load ptr, ptr %2, align 8, !tbaa !8
  %13 = getelementptr inbounds nuw %struct.lean_object, ptr %12, i32 0, i32 0
  %14 = load i32, ptr %13, align 4, !tbaa !13
  %15 = add i32 %14, -1
  store i32 %15, ptr %13, align 4, !tbaa !13
  br label %24

16:                                               ; preds = %1
  %17 = load ptr, ptr %2, align 8, !tbaa !8
  %18 = getelementptr inbounds nuw %struct.lean_object, ptr %17, i32 0, i32 0
  %19 = load i32, ptr %18, align 4, !tbaa !13
  %20 = icmp ne i32 %19, 0
  br i1 %20, label %21, label %23

21:                                               ; preds = %16
  %22 = load ptr, ptr %2, align 8, !tbaa !8
  call void @lean_dec_ref_cold(ptr noundef %22)
  br label %23

23:                                               ; preds = %21, %16
  br label %24

24:                                               ; preds = %23, %11
  ret void
}

; Function Attrs: alwaysinline nounwind uwtable
define internal zeroext i1 @lean_is_scalar(ptr noundef %0) #1 {
  %2 = alloca ptr, align 8
  store ptr %0, ptr %2, align 8, !tbaa !8
  %3 = load ptr, ptr %2, align 8, !tbaa !8
  %4 = ptrtoint ptr %3 to i64
  %5 = and i64 %4, 1
  %6 = icmp eq i64 %5, 1
  ret i1 %6
}

; Function Attrs: alwaysinline nounwind uwtable
define internal void @lean_dec(ptr noundef %0) #1 {
  %2 = alloca ptr, align 8
  store ptr %0, ptr %2, align 8, !tbaa !8
  %3 = load ptr, ptr %2, align 8, !tbaa !8
  %4 = call zeroext i1 @lean_is_scalar(ptr noundef %3)
  br i1 %4, label %7, label %5

5:                                                ; preds = %1
  %6 = load ptr, ptr %2, align 8, !tbaa !8
  call void @lean_dec_ref(ptr noundef %6)
  br label %7

7:                                                ; preds = %5, %1
  ret void
}

; Function Attrs: nounwind uwtable
define ptr @l___private_Lean_Meta_Tactic_Grind_Core_0__Lean_Meta_Grind_addFactStep_go___lambda__2(ptr noundef %0, ptr noundef %1, ptr noundef %2, i8 noundef zeroext %3, ptr noundef %4, ptr noundef %5, ptr noundef %6, ptr noundef %7, ptr noundef %8, ptr noundef %9, ptr noundef %10, ptr noundef %11, ptr noundef %12, ptr noundef %13, ptr noundef %14, ptr noundef %15) #2 {
  %17 = alloca ptr, align 8
  %18 = alloca ptr, align 8
  %19 = alloca ptr, align 8
  %20 = alloca ptr, align 8
  %21 = alloca i8, align 1
  %22 = alloca ptr, align 8
  %23 = alloca ptr, align 8
  %24 = alloca ptr, align 8
  %25 = alloca ptr, align 8
  %26 = alloca ptr, align 8
  %27 = alloca ptr, align 8
  %28 = alloca ptr, align 8
  %29 = alloca ptr, align 8
  %30 = alloca ptr, align 8
  %31 = alloca ptr, align 8
  %32 = alloca ptr, align 8
  %33 = alloca ptr, align 8
  %34 = alloca i8, align 1
  %35 = alloca i8, align 1
  %36 = alloca ptr, align 8
  %37 = alloca i32, align 4
  %38 = alloca ptr, align 8
  store ptr %0, ptr %18, align 8, !tbaa !8
  store ptr %1, ptr %19, align 8, !tbaa !8
  store ptr %2, ptr %20, align 8, !tbaa !8
  store i8 %3, ptr %21, align 1, !tbaa !12
  store ptr %4, ptr %22, align 8, !tbaa !8
  store ptr %5, ptr %23, align 8, !tbaa !8
  store ptr %6, ptr %24, align 8, !tbaa !8
  store ptr %7, ptr %25, align 8, !tbaa !8
  store ptr %8, ptr %26, align 8, !tbaa !8
  store ptr %9, ptr %27, align 8, !tbaa !8
  store ptr %10, ptr %28, align 8, !tbaa !8
  store ptr %11, ptr %29, align 8, !tbaa !8
  store ptr %12, ptr %30, align 8, !tbaa !8
  store ptr %13, ptr %31, align 8, !tbaa !8
  store ptr %14, ptr %32, align 8, !tbaa !8
  store ptr %15, ptr %33, align 8, !tbaa !8
  br label %39

39:                                               ; preds = %16
  call void @llvm.lifetime.start.p0(i64 1, ptr %34) #7
  %40 = load ptr, ptr %22, align 8, !tbaa !8
  %41 = call zeroext i8 @l_Lean_Expr_isProp(ptr noundef %40)
  store i8 %41, ptr %34, align 1, !tbaa !12
  %42 = load i8, ptr %34, align 1, !tbaa !12
  %43 = zext i8 %42 to i32
  %44 = icmp eq i32 %43, 0
  br i1 %44, label %45, label %64

45:                                               ; preds = %39
  call void @llvm.lifetime.start.p0(i64 1, ptr %35) #7
  call void @llvm.lifetime.start.p0(i64 8, ptr %36) #7
  store i8 0, ptr %35, align 1, !tbaa !12
  %46 = load ptr, ptr %18, align 8, !tbaa !8
  %47 = load ptr, ptr %19, align 8, !tbaa !8
  %48 = load ptr, ptr %20, align 8, !tbaa !8
  %49 = load ptr, ptr %23, align 8, !tbaa !8
  %50 = load ptr, ptr %24, align 8, !tbaa !8
  %51 = load i8, ptr %21, align 1, !tbaa !12
  %52 = load i8, ptr %35, align 1, !tbaa !12
  %53 = load ptr, ptr %25, align 8, !tbaa !8
  %54 = load ptr, ptr %26, align 8, !tbaa !8
  %55 = load ptr, ptr %27, align 8, !tbaa !8
  %56 = load ptr, ptr %28, align 8, !tbaa !8
  %57 = load ptr, ptr %29, align 8, !tbaa !8
  %58 = load ptr, ptr %30, align 8, !tbaa !8
  %59 = load ptr, ptr %31, align 8, !tbaa !8
  %60 = load ptr, ptr %32, align 8, !tbaa !8
  %61 = load ptr, ptr %33, align 8, !tbaa !8
  %62 = call ptr @l___private_Lean_Meta_Tactic_Grind_Core_0__Lean_Meta_Grind_addFactStep_goEq(ptr noundef %46, ptr noundef %47, ptr noundef %48, ptr noundef %49, ptr noundef %50, i8 noundef zeroext %51, i8 noundef zeroext %52, ptr noundef %53, ptr noundef %54, ptr noundef %55, ptr noundef %56, ptr noundef %57, ptr noundef %58, ptr noundef %59, ptr noundef %60, ptr noundef %61)
  store ptr %62, ptr %36, align 8, !tbaa !8
  %63 = load ptr, ptr %36, align 8, !tbaa !8
  store ptr %63, ptr %17, align 8
  store i32 1, ptr %37, align 4
  call void @llvm.lifetime.end.p0(i64 8, ptr %36) #7
  call void @llvm.lifetime.end.p0(i64 1, ptr %35) #7
  br label %82

64:                                               ; preds = %39
  call void @llvm.lifetime.start.p0(i64 8, ptr %38) #7
  %65 = load ptr, ptr %24, align 8, !tbaa !8
  call void @lean_dec(ptr noundef %65)
  %66 = load ptr, ptr %23, align 8, !tbaa !8
  call void @lean_dec(ptr noundef %66)
  %67 = load ptr, ptr %18, align 8, !tbaa !8
  %68 = load ptr, ptr %19, align 8, !tbaa !8
  %69 = load ptr, ptr %20, align 8, !tbaa !8
  %70 = load i8, ptr %21, align 1, !tbaa !12
  %71 = load ptr, ptr %25, align 8, !tbaa !8
  %72 = load ptr, ptr %26, align 8, !tbaa !8
  %73 = load ptr, ptr %27, align 8, !tbaa !8
  %74 = load ptr, ptr %28, align 8, !tbaa !8
  %75 = load ptr, ptr %29, align 8, !tbaa !8
  %76 = load ptr, ptr %30, align 8, !tbaa !8
  %77 = load ptr, ptr %31, align 8, !tbaa !8
  %78 = load ptr, ptr %32, align 8, !tbaa !8
  %79 = load ptr, ptr %33, align 8, !tbaa !8
  %80 = call ptr @l___private_Lean_Meta_Tactic_Grind_Core_0__Lean_Meta_Grind_addFactStep_goFact(ptr noundef %67, ptr noundef %68, ptr noundef %69, i8 noundef zeroext %70, ptr noundef %71, ptr noundef %72, ptr noundef %73, ptr noundef %74, ptr noundef %75, ptr noundef %76, ptr noundef %77, ptr noundef %78, ptr noundef %79)
  store ptr %80, ptr %38, align 8, !tbaa !8
  %81 = load ptr, ptr %38, align 8, !tbaa !8
  store ptr %81, ptr %17, align 8
  store i32 1, ptr %37, align 4
  call void @llvm.lifetime.end.p0(i64 8, ptr %38) #7
  br label %82

82:                                               ; preds = %64, %45
  call void @llvm.lifetime.end.p0(i64 1, ptr %34) #7
  %83 = load ptr, ptr %17, align 8
  ret ptr %83
}